Certificate:
    Data:
        Version: 3 (0x2)
        Serial Number: 1 (0x1)
        Signature Algorithm: sha256WithRSAEncryption
        Issuer: O=Test Org, CN=Test Org rauc CA Development
        Validity
            Not Before: Jan  1 00:00:00 1970 GMT
            Not After : Dec 31 23:59:59 9999 GMT
        Subject: O=Test Org, CN=Test Org rauc CA Development
        Subject Public Key Info:
            Public Key Algorithm: rsaEncryption
                Public-Key: (2048 bit)
                Modulus:
                    00:d4:a9:bd:ce:78:4a:d0:dd:29:81:1b:b9:cb:48:
                    81:ee:aa:4c:d7:ec:d8:49:af:ab:35:9f:bc:0d:a3:
                    81:2a:93:fe:b6:3b:27:49:84:a4:ce:ea:58:98:cd:
                    24:8d:31:1d:6e:44:23:62:1f:a8:12:38:95:85:98:
                    74:b6:35:f4:70:a3:ef:ef:13:c4:eb:89:5b:2e:e1:
                    5c:33:1b:fb:0d:dd:6f:91:fd:9a:39:93:82:2e:d4:
                    e8:8f:9f:85:ea:56:6a:9f:37:87:31:e4:79:41:f7:
                    28:78:fb:9e:df:28:1a:1e:54:e5:57:25:02:e5:91:
                    2b:85:64:a7:04:fb:e6:32:c1:ae:4f:28:25:25:f6:
                    c4:4c:42:47:ef:9f:30:ca:4d:36:bd:ec:68:2c:25:
                    bf:d0:15:d9:d5:c7:23:68:81:b1:ea:fb:83:7f:e3:
                    93:96:97:db:c6:1a:bc:3c:b9:88:ef:b2:b8:95:5c:
                    07:2c:af:46:cf:9a:f6:d8:26:32:ba:61:6a:a1:97:
                    95:35:c7:f4:33:ed:88:26:11:65:6d:d5:10:d0:6a:
                    ce:5b:45:13:f3:8e:50:f1:f3:e5:94:19:bc:33:67:
                    2c:85:bb:a6:18:50:d2:dc:bb:99:a2:46:f0:24:4c:
                    40:44:6a:0b:c4:7c:f0:20:26:d7:9c:5a:b0:52:7e:
                    53:6f
                Exponent: 65537 (0x10001)
        X509v3 extensions:
            X509v3 Subject Key Identifier: 
                DA:25:5B:61:DC:0B:7F:CA:8A:2A:36:AA:8C:D8:C7:55:D7:BB:CE:82
            X509v3 Authority Key Identifier: 
                keyid:DA:25:5B:61:DC:0B:7F:CA:8A:2A:36:AA:8C:D8:C7:55:D7:BB:CE:82
                DirName:/O=Test Org/CN=Test Org rauc CA Development
                serial:01
            X509v3 Basic Constraints: 
                CA:TRUE
    Signature Algorithm: sha256WithRSAEncryption
    Signature Value:
        3f:bd:89:69:16:2e:74:b3:00:37:92:16:7a:ab:bf:a9:c3:96:
        ff:14:ef:d0:90:13:14:72:0b:12:8a:59:62:01:94:ab:b8:b6:
        12:b3:43:eb:9a:1d:05:72:65:2a:2b:a1:ce:b3:d0:49:5d:40:
        db:64:a7:31:6b:b7:36:e7:87:1d:26:6e:53:8a:7d:d4:2a:25:
        30:bc:4e:ee:89:13:28:c3:f4:fc:6c:bd:5b:88:e5:bb:7f:79:
        ac:04:80:d0:43:74:d6:04:26:92:20:a1:72:85:f2:b5:95:2b:
        84:49:3b:a7:48:fb:9a:a5:3b:03:a7:db:86:23:60:40:b6:59:
        39:57:fa:0e:a0:f5:d5:3b:82:95:c1:5a:30:04:e6:bc:b7:a6:
        bb:14:56:24:bf:ab:85:9f:bb:cf:f7:bf:7d:78:99:a5:c2:d0:
        ed:df:96:a2:eb:82:e5:df:c9:4d:a4:62:dc:ab:b7:6f:1b:14:
        ec:14:b4:4c:fa:f2:70:47:f8:b2:e2:d2:73:14:f0:44:00:f1:
        bf:7f:d4:f9:0d:17:e1:e7:70:41:99:c1:54:55:7d:c5:5c:71:
        65:cf:e8:9f:b7:be:25:9b:52:0c:6a:4a:2b:09:0e:8f:1e:bf:
        6d:e3:57:fd:1a:03:5c:30:b2:4a:2f:cd:c0:f8:c3:18:41:7f:
        e6:1a:77:de
-----BEGIN CERTIFICATE-----
MIIDhjCCAm6gAwIBAgIBATANBgkqhkiG9w0BAQsFADA6MREwDwYDVQQKDAhUZXN0
IE9yZzElMCMGA1UEAwwcVGVzdCBPcmcgcmF1YyBDQSBEZXZlbG9wbWVudDAgFw03
MDAxMDEwMDAwMDBaGA85OTk5MTIzMTIzNTk1OVowOjERMA8GA1UECgwIVGVzdCBP
cmcxJTAjBgNVBAMMHFRlc3QgT3JnIHJhdWMgQ0EgRGV2ZWxvcG1lbnQwggEiMA0G
CSqGSIb3DQEBAQUAA4IBDwAwggEKAoIBAQDUqb3OeErQ3SmBG7nLSIHuqkzX7NhJ
r6s1n7wNo4Eqk/62OydJhKTO6liYzSSNMR1uRCNiH6gSOJWFmHS2NfRwo+/vE8Tr
iVsu4VwzG/sN3W+R/Zo5k4Iu1OiPn4XqVmqfN4cx5HlB9yh4+57fKBoeVOVXJQLl
kSuFZKcE++Yywa5PKCUl9sRMQkfvnzDKTTa97GgsJb/QFdnVxyNogbHq+4N/45OW
l9vGGrw8uYjvsriVXAcsr0bPmvbYJjK6YWqhl5U1x/Qz7YgmEWVt1RDQas5bRRPz
jlDx8+WUGbwzZyyFu6YYUNLcu5miRvAkTEBEagvEfPAgJtecWrBSflNvAgMBAAGj
gZQwgZEwHQYDVR0OBBYEFNolW2HcC3/Kiio2qozYx1XXu86CMGIGA1UdIwRbMFmA
FNolW2HcC3/Kiio2qozYx1XXu86CoT6kPDA6MREwDwYDVQQKDAhUZXN0IE9yZzEl
MCMGA1UEAwwcVGVzdCBPcmcgcmF1YyBDQSBEZXZlbG9wbWVudIIBATAMBgNVHRME
BTADAQH/MA0GCSqGSIb3DQEBCwUAA4IBAQA/vYlpFi50swA3khZ6q7+pw5b/FO/Q
kBMUcgsSilliAZSruLYSs0Prmh0FcmUqK6HOs9BJXUDbZKcxa7c254cdJm5Tin3U
KiUwvE7uiRMow/T8bL1biOW7f3msBIDQQ3TWBCaSIKFyhfK1lSuESTunSPuapTsD
p9uGI2BAtlk5V/oOoPXVO4KVwVowBOa8t6a7FFYkv6uFn7vP9799eJmlwtDt35ai
64Ll38lNpGLcq7dvGxTsFLRM+vJwR/iy4tJzFPBEAPG/f9T5DRfh53BBmcFUVX3F
XHFlz+ift74lm1IMakorCQ6PHr9t41f9GgNcMLJKL83A+MMYQX/mGnfe
-----END CERTIFICATE-----
