Certificate:
    Data:
        Version: 3 (0x2)
        Serial Number: 2 (0x2)
        Signature Algorithm: sha256WithRSAEncryption
        Issuer: O=Test Org, CN=Test Org rauc CA Development
        Validity
            Not Before: Jan  1 00:00:00 1970 GMT
            Not After : Dec 31 23:59:59 9999 GMT
        Subject: O=Test Org, CN=Test Org Development-1
        Subject Public Key Info:
            Public Key Algorithm: rsaEncryption
                Public-Key: (2048 bit)
                Modulus:
                    00:bb:5d:17:a7:81:c6:2f:91:a4:4f:e7:1e:da:cd:
                    e9:7a:11:f3:fe:10:4c:b1:de:25:a6:8a:a4:c6:64:
                    29:3e:b3:ef:3d:76:49:fe:34:35:d9:2f:bc:5a:e6:
                    74:2c:6e:e9:30:d7:b1:e2:1e:2a:3f:e3:8a:9b:13:
                    37:fe:9c:bf:bb:bf:eb:c5:30:59:c9:4e:74:82:0c:
                    4e:2f:6f:64:14:9e:32:5c:17:ab:f9:db:00:70:57:
                    4d:a8:ee:c7:91:c4:29:d0:c3:a6:23:72:29:d9:c1:
                    6d:69:23:c9:b5:48:c9:48:09:48:94:42:c8:24:9d:
                    6c:8f:3c:99:4a:b0:e6:44:30:6b:a6:4f:25:ef:fb:
                    41:49:4b:d2:da:53:96:c6:37:b5:a9:f3:25:37:2e:
                    52:84:d3:83:ff:50:bf:35:02:42:02:6d:fa:9a:4f:
                    13:98:42:00:b8:ea:71:5b:fb:25:22:ea:35:5f:2b:
                    0f:e3:43:71:ae:64:e6:44:c0:ad:69:eb:69:37:d4:
                    10:ed:96:bb:df:c2:ba:57:ca:89:2e:e4:7a:f2:cd:
                    25:4e:74:fa:15:ce:a0:b1:c0:2a:86:c8:ed:d0:5c:
                    1d:d4:04:dd:30:ca:b0:6c:e7:b0:a8:da:93:b1:16:
                    59:d7:a6:3f:ed:5f:51:1b:c0:b6:3f:2e:8e:84:37:
                    dd:ef
                Exponent: 65537 (0x10001)
        X509v3 extensions:
            X509v3 Subject Key Identifier: 
                20:8A:86:71:53:88:C2:60:6D:B5:82:0F:A4:4E:A6:C8:8B:1E:26:30
            X509v3 Authority Key Identifier: 
                keyid:DA:25:5B:61:DC:0B:7F:CA:8A:2A:36:AA:8C:D8:C7:55:D7:BB:CE:82
                DirName:/O=Test Org/CN=Test Org rauc CA Development
                serial:01
            X509v3 Basic Constraints: 
                CA:FALSE
    Signature Algorithm: sha256WithRSAEncryption
    Signature Value:
        93:2c:f7:b0:09:78:ca:74:df:92:4b:84:6f:46:92:70:e7:29:
        36:64:88:a9:41:0e:5c:a2:53:eb:fc:96:7d:aa:5c:52:24:ce:
        9d:5d:e5:44:c6:0b:da:30:c2:0c:67:ee:80:d6:c7:b6:8e:9b:
        0f:d9:f2:3d:7f:47:a0:9d:bf:4f:83:32:f9:22:01:07:c4:4f:
        85:0b:1d:86:25:42:70:33:0a:55:d0:b5:90:b6:72:ee:85:1d:
        42:55:04:85:ea:f7:6a:66:f4:b1:6d:6c:59:4d:e7:7c:d3:ed:
        70:62:88:e1:5c:6e:0f:72:49:e5:00:70:75:48:43:04:51:aa:
        bd:b5:90:4f:cb:cf:ec:df:61:b7:9a:bb:dd:b8:6c:0d:ab:c4:
        3a:3d:5c:de:ca:a7:53:38:74:60:77:f9:3c:68:d4:68:cd:d3:
        88:c8:6c:49:3a:7a:87:f4:5a:9d:18:07:92:68:6a:fb:26:5c:
        e4:ca:6c:3a:1d:25:1d:e0:ae:7d:4b:cc:25:89:b8:0c:1f:ff:
        51:78:7a:45:2e:6b:09:b4:d4:37:2f:70:20:2e:3b:25:b7:ef:
        e3:18:f7:4c:57:6b:81:1e:4f:4b:2a:70:93:f0:98:0f:fa:19:
        d1:ce:5f:a7:c1:34:23:dc:0c:00:cb:7c:13:cb:ce:b4:1f:3f:
        4d:b1:00:cb
-----BEGIN CERTIFICATE-----
MIIDfTCCAmWgAwIBAgIBAjANBgkqhkiG9w0BAQsFADA6MREwDwYDVQQKDAhUZXN0
IE9yZzElMCMGA1UEAwwcVGVzdCBPcmcgcmF1YyBDQSBEZXZlbG9wbWVudDAgFw03
MDAxMDEwMDAwMDBaGA85OTk5MTIzMTIzNTk1OVowNDERMA8GA1UECgwIVGVzdCBP
cmcxHzAdBgNVBAMMFlRlc3QgT3JnIERldmVsb3BtZW50LTEwggEiMA0GCSqGSIb3
DQEBAQUAA4IBDwAwggEKAoIBAQC7XRengcYvkaRP5x7azel6EfP+EEyx3iWmiqTG
ZCk+s+89dkn+NDXZL7xa5nQsbukw17HiHio/44qbEzf+nL+7v+vFMFnJTnSCDE4v
b2QUnjJcF6v52wBwV02o7seRxCnQw6YjcinZwW1pI8m1SMlICUiUQsgknWyPPJlK
sOZEMGumTyXv+0FJS9LaU5bGN7Wp8yU3LlKE04P/UL81AkICbfqaTxOYQgC46nFb
+yUi6jVfKw/jQ3GuZOZEwK1p62k31BDtlrvfwrpXyoku5HryzSVOdPoVzqCxwCqG
yO3QXB3UBN0wyrBs57Co2pOxFlnXpj/tX1EbwLY/Lo6EN93vAgMBAAGjgZEwgY4w
HQYDVR0OBBYEFCCKhnFTiMJgbbWCD6ROpsiLHiYwMGIGA1UdIwRbMFmAFNolW2Hc
C3/Kiio2qozYx1XXu86CoT6kPDA6MREwDwYDVQQKDAhUZXN0IE9yZzElMCMGA1UE
AwwcVGVzdCBPcmcgcmF1YyBDQSBEZXZlbG9wbWVudIIBATAJBgNVHRMEAjAAMA0G
CSqGSIb3DQEBCwUAA4IBAQCTLPewCXjKdN+SS4RvRpJw5yk2ZIipQQ5colPr/JZ9
qlxSJM6dXeVExgvaMMIMZ+6A1se2jpsP2fI9f0egnb9PgzL5IgEHxE+FCx2GJUJw
MwpV0LWQtnLuhR1CVQSF6vdqZvSxbWxZTed80+1wYojhXG4PcknlAHB1SEMEUaq9
tZBPy8/s32G3mrvduGwNq8Q6PVzeyqdTOHRgd/k8aNRozdOIyGxJOnqH9FqdGAeS
aGr7Jlzkymw6HSUd4K59S8wlibgMH/9ReHpFLmsJtNQ3L3AgLjslt+/jGPdMV2uB
Hk9LKnCT8JgP+hnRzl+nwTQj3AwAy3wTy860Hz9NsQDL
-----END CERTIFICATE-----
